target datalayout = "e-m:e-p270:32:32-p271:32:32-p272:64:64-i64:64-i128:128-f80:128-n8:16:32:64-S128"
target triple = "x86_64-pc-linux-gnu"

%struct.ident_t = type { i32, i32, i32, i32, ptr }
%"class.LightGBM::GradientDiscretizer" = type { ptr, i32, i32, i32, i32, i8, %"class.std::vector", %"class.std::vector", %"class.std::mersenne_twister_engine", %"class.std::uniform_int_distribution", %"class.std::vector.0", %"class.std::vector.0", double, double, double, double, double, double, i8, i32, %"class.std::vector.0", %"class.std::vector.0", %"class.std::vector.0", %"class.std::vector.0", %"class.std::vector", %"class.std::vector.5" }
%"class.std::mersenne_twister_engine" = type { [624 x i64], i64 }
%"class.std::uniform_int_distribution" = type { %"struct.std::uniform_int_distribution<>::param_type" }
%"struct.std::uniform_int_distribution<>::param_type" = type { i32, i32 }
%"class.std::vector.0" = type { %"struct.std::_Vector_base.1" }
%"struct.std::_Vector_base.1" = type { %"struct.std::_Vector_base<signed char, std::allocator<signed char>>::_Vector_impl" }
%"struct.std::_Vector_base<signed char, std::allocator<signed char>>::_Vector_impl" = type { %"struct.std::_Vector_base<signed char, std::allocator<signed char>>::_Vector_impl_data" }
%"struct.std::_Vector_base<signed char, std::allocator<signed char>>::_Vector_impl_data" = type { ptr, ptr, ptr }
%"class.std::vector" = type { %"struct.std::_Vector_base" }
%"struct.std::_Vector_base" = type { %"struct.std::_Vector_base<double, std::allocator<double>>::_Vector_impl" }
%"struct.std::_Vector_base<double, std::allocator<double>>::_Vector_impl" = type { %"struct.std::_Vector_base<double, std::allocator<double>>::_Vector_impl_data" }
%"struct.std::_Vector_base<double, std::allocator<double>>::_Vector_impl_data" = type { ptr, ptr, ptr }
%"class.std::vector.5" = type { %"struct.std::_Vector_base.6" }
%"struct.std::_Vector_base.6" = type { %"struct.std::_Vector_base<std::vector<int>, std::allocator<std::vector<int>>>::_Vector_impl" }
%"struct.std::_Vector_base<std::vector<int>, std::allocator<std::vector<int>>>::_Vector_impl" = type { %"struct.std::_Vector_base<std::vector<int>, std::allocator<std::vector<int>>>::_Vector_impl_data" }
%"struct.std::_Vector_base<std::vector<int>, std::allocator<std::vector<int>>>::_Vector_impl_data" = type { ptr, ptr, ptr }

@1 = private unnamed_addr constant %struct.ident_t { i32 0, i32 514, i32 0, i32 22, ptr @0 }, align 8

; Function Attrs: mustprogress nounwind uwtable
define linkonce_odr noundef nonnull align 8 dereferenceable(8) ptr @_ZNSt6vectorIdSaIdEEixEm(ptr noundef nonnull align 8 dereferenceable(24) %0, i64 noundef %1) #0 comdat align 2 {
  %3 = alloca ptr, align 8
  %4 = alloca i64, align 8
  store ptr %0, ptr %3, align 8
  store i64 %1, ptr %4, align 8
  %5 = load ptr, ptr %3, align 8
  %6 = getelementptr inbounds %"struct.std::_Vector_base", ptr %5, i32 0, i32 0
  %7 = getelementptr inbounds %"struct.std::_Vector_base<double, std::allocator<double>>::_Vector_impl_data", ptr %6, i32 0, i32 0
  %8 = load ptr, ptr %7, align 8
  %9 = load i64, ptr %4, align 8
  %10 = getelementptr inbounds double, ptr %8, i64 %9
  ret ptr %10
}

; Function Attrs: norecurse nounwind uwtable
define internal void @_ZN8LightGBM19GradientDiscretizer19DiscretizeGradientsEiPKfS2_.omp_outlined(ptr noalias noundef %0, ptr noalias noundef %1, ptr noundef nonnull align 4 dereferenceable(4) %2, ptr noundef nonnull align 8 dereferenceable(8) %3, ptr noundef nonnull align 4 dereferenceable(4) %4, ptr noundef nonnull align 8 dereferenceable(8) %5, ptr noundef %6) #7 {
  %8 = alloca ptr, align 8
  %9 = alloca ptr, align 8
  %10 = alloca ptr, align 8
  %11 = alloca ptr, align 8
  %12 = alloca ptr, align 8
  %13 = alloca ptr, align 8
  %14 = alloca ptr, align 8
  %15 = alloca i32, align 4
  %16 = alloca i32, align 4
  %17 = alloca i32, align 4
  %18 = alloca i32, align 4
  %19 = alloca i32, align 4
  %20 = alloca i32, align 4
  %21 = alloca i32, align 4
  %22 = alloca i32, align 4
  %23 = alloca i32, align 4
  %24 = alloca double, align 8
  %25 = alloca i32, align 4
  store ptr %0, ptr %8, align 8
  store ptr %1, ptr %9, align 8
  store ptr %2, ptr %10, align 8
  store ptr %3, ptr %11, align 8
  store ptr %4, ptr %12, align 8
  store ptr %5, ptr %13, align 8
  store ptr %6, ptr %14, align 8
  %26 = load ptr, ptr %10, align 8
  %27 = load ptr, ptr %11, align 8
  %28 = load ptr, ptr %12, align 8
  %29 = load ptr, ptr %13, align 8
  %30 = load ptr, ptr %14, align 8
  %31 = load i32, ptr %26, align 4
  store i32 %31, ptr %16, align 4
  %32 = load i32, ptr %16, align 4
  %33 = sub nsw i32 %32, 0
  %34 = sdiv i32 %33, 1
  %35 = sub nsw i32 %34, 1
  store i32 %35, ptr %17, align 4
  store i32 0, ptr %18, align 4
  %36 = load i32, ptr %16, align 4
  %37 = icmp slt i32 0, %36
  br i1 %37, label %38, label %117

38:                                               ; preds = %7
  store i32 0, ptr %19, align 4
  %39 = load i32, ptr %17, align 4
  store i32 %39, ptr %20, align 4
  store i32 1, ptr %21, align 4
  store i32 0, ptr %22, align 4
  %40 = load ptr, ptr %8, align 8
  %41 = load i32, ptr %40, align 4
  call void @__kmpc_for_static_init_4(ptr @1, i32 %41, i32 34, ptr %22, ptr %19, ptr %20, ptr %21, i32 1, i32 1)
  %42 = load i32, ptr %20, align 4
  %43 = load i32, ptr %17, align 4
  %44 = icmp sgt i32 %42, %43
  br i1 %44, label %45, label %47

45:                                               ; preds = %38
  %46 = load i32, ptr %17, align 4
  br label %49

47:                                               ; preds = %38
  %48 = load i32, ptr %20, align 4
  br label %49

49:                                               ; preds = %47, %45
  %50 = phi i32 [ %46, %45 ], [ %48, %47 ]
  store i32 %50, ptr %20, align 4
  %51 = load i32, ptr %19, align 4
  store i32 %51, ptr %15, align 4
  br label %52

52:                                               ; preds = %110, %49
  %53 = load i32, ptr %15, align 4
  %54 = load i32, ptr %20, align 4
  %55 = icmp sle i32 %53, %54
  br i1 %55, label %56, label %113

56:                                               ; preds = %52
  %57 = load i32, ptr %15, align 4
  %58 = mul nsw i32 %57, 1
  %59 = add nsw i32 0, %58
  store i32 %59, ptr %23, align 4
  %60 = load ptr, ptr %27, align 8
  %61 = load i32, ptr %23, align 4
  %62 = sext i32 %61 to i64
  %63 = getelementptr inbounds float, ptr %60, i64 %62
  %64 = load float, ptr %63, align 4
  %65 = fpext float %64 to double
  store double %65, ptr %24, align 8
  %66 = load i32, ptr %23, align 4
  %67 = load i32, ptr %28, align 4
  %68 = add nsw i32 %66, %67
  %69 = load i32, ptr %26, align 4
  %70 = srem i32 %68, %69
  store i32 %70, ptr %25, align 4
  %71 = load double, ptr %24, align 8
  %72 = fcmp oge double %71, 0.000000e+00
  br i1 %72, label %73, label %84

73:                                               ; preds = %56
  %74 = load double, ptr %24, align 8
  %75 = getelementptr inbounds %"class.LightGBM::GradientDiscretizer", ptr %30, i32 0, i32 16
  %76 = load double, ptr %75, align 8
  %77 = getelementptr inbounds %"class.LightGBM::GradientDiscretizer", ptr %30, i32 0, i32 6
  %78 = load i32, ptr %25, align 4
  %79 = sext i32 %78 to i64
  %80 = call noundef nonnull align 8 dereferenceable(8) ptr @_ZNSt6vectorIdSaIdEEixEm(ptr noundef nonnull align 8 dereferenceable(24) %77, i64 noundef %79) #5
  %81 = load double, ptr %80, align 8
  %82 = call double @llvm.fmuladd.f64(double %74, double %76, double %81)
  %83 = fptosi double %82 to i8
  br label %96

84:                                               ; preds = %56
  %85 = load double, ptr %24, align 8
  %86 = getelementptr inbounds %"class.LightGBM::GradientDiscretizer", ptr %30, i32 0, i32 16
  %87 = load double, ptr %86, align 8
  %88 = getelementptr inbounds %"class.LightGBM::GradientDiscretizer", ptr %30, i32 0, i32 6
  %89 = load i32, ptr %25, align 4
  %90 = sext i32 %89 to i64
  %91 = call noundef nonnull align 8 dereferenceable(8) ptr @_ZNSt6vectorIdSaIdEEixEm(ptr noundef nonnull align 8 dereferenceable(24) %88, i64 noundef %90) #5
  %92 = load double, ptr %91, align 8
  %93 = fneg double %92
  %94 = call double @llvm.fmuladd.f64(double %85, double %87, double %93)
  %95 = fptosi double %94 to i8
  br label %96

96:                                               ; preds = %84, %73
  %97 = phi i8 [ %83, %73 ], [ %95, %84 ]
  %98 = load ptr, ptr %29, align 8
  %99 = load i32, ptr %23, align 4
  %100 = mul nsw i32 2, %99
  %101 = add nsw i32 %100, 1
  %102 = sext i32 %101 to i64
  %103 = getelementptr inbounds i8, ptr %98, i64 %102
  store i8 %97, ptr %103, align 1
  %104 = load ptr, ptr %29, align 8
  %105 = load i32, ptr %23, align 4
  %106 = mul nsw i32 2, %105
  %107 = sext i32 %106 to i64
  %108 = getelementptr inbounds i8, ptr %104, i64 %107
  store i8 1, ptr %108, align 1
  br label %109

109:                                              ; preds = %96
  br label %110

110:                                              ; preds = %109
  %111 = load i32, ptr %15, align 4
  %112 = add nsw i32 %111, 1
  store i32 %112, ptr %15, align 4
  br label %52

113:                                              ; preds = %52
  br label %114

114:                                              ; preds = %113
  %115 = load ptr, ptr %8, align 8
  %116 = load i32, ptr %115, align 4
  call void @__kmpc_for_static_fini(ptr @1, i32 %116)
  br label %117

117:                                              ; preds = %114, %7
  ret void
}