; Function Attrs: norecurse nounwind uwtable
define internal void @_ZN8LightGBM19GradientDiscretizer19DiscretizeGradientsEiPKfS2_.omp_outlined(ptr noalias nocapture noundef readonly %0, ptr noalias nocapture readnone %1, ptr nocapture noundef nonnull readonly align 4 dereferenceable(4) %2, ptr nocapture noundef nonnull readonly align 8 dereferenceable(8) %3, ptr nocapture noundef nonnull readonly align 4 dereferenceable(4) %4, ptr nocapture noundef nonnull readonly align 8 dereferenceable(8) %5, ptr nocapture noundef readonly %6) #6 {
  %8 = alloca i32, align 4
  %9 = alloca i32, align 4
  %10 = alloca i32, align 4
  %11 = alloca i32, align 4
  %12 = load i32, ptr %2, align 4
  %13 = icmp sgt i32 %12, 0
  br i1 %13, label %14, label %50

14:                                               ; preds = %7
  %15 = add nsw i32 %12, -1
  store i32 0, ptr %8, align 4
  store i32 %15, ptr %9, align 4
  store i32 1, ptr %10, align 4
  store i32 0, ptr %11, align 4
  %16 = load i32, ptr %0, align 4
  call void @__kmpc_for_static_init_4(ptr nonnull @1, i32 %16, i32 34, ptr nonnull %11, ptr nonnull %8, ptr nonnull %9, ptr nonnull %10, i32 1, i32 1)
  %17 = load i32, ptr %9, align 4
  %18 = call i32 @llvm.smin.i32(i32 %17, i32 %15)
  store i32 %18, ptr %9, align 4
  %19 = load i32, ptr %8, align 4
  %.not24 = icmp sgt i32 %19, %18
  br i1 %.not24, label %._crit_edge, label %.lr.ph

.lr.ph:                                           ; preds = %14
  %20 = getelementptr inbounds i8, ptr %6, i64 5168
  %21 = getelementptr inbounds i8, ptr %6, i64 32
  %22 = sext i32 %19 to i64
  br label %23

23:                                               ; preds = %.lr.ph, %23
  %indvars.iv = phi i64 [ %22, %.lr.ph ], [ %indvars.iv.next, %23 ]
  %24 = load ptr, ptr %3, align 8
  %25 = getelementptr inbounds float, ptr %24, i64 %indvars.iv
  %26 = load float, ptr %25, align 4
  %27 = fpext float %26 to double
  %28 = load i32, ptr %4, align 4
  %29 = trunc nsw i64 %indvars.iv to i32
  %30 = add nsw i32 %28, %29
  %31 = load i32, ptr %2, align 4
  %32 = srem i32 %30, %31
  %33 = fcmp ult float %26, 0.000000e+00
  %34 = load double, ptr %20, align 8
  %35 = sext i32 %32 to i64
  %36 = load ptr, ptr %21, align 8
  %37 = getelementptr inbounds double, ptr %36, i64 %35
  %38 = load double, ptr %37, align 8
  %39 = fneg double %38
  %.sink = select i1 %33, double %39, double %38
  %40 = call double @llvm.fmuladd.f64(double %27, double %34, double %.sink)
  %41 = fptosi double %40 to i8
  %42 = load ptr, ptr %5, align 8
  %43 = shl nsw i64 %indvars.iv, 1
  %44 = or disjoint i64 %43, 1
  %45 = getelementptr inbounds i8, ptr %42, i64 %44
  store i8 %41, ptr %45, align 1
  %46 = load ptr, ptr %5, align 8
  %47 = getelementptr inbounds i8, ptr %46, i64 %43
  store i8 1, ptr %47, align 1
  %indvars.iv.next = add nsw i64 %indvars.iv, 1
  %48 = load i32, ptr %9, align 4
  %49 = sext i32 %48 to i64
  %.not.not = icmp slt i64 %indvars.iv, %49
  br i1 %.not.not, label %23, label %._crit_edge

._crit_edge:                                      ; preds = %23, %14
  call void @__kmpc_for_static_fini(ptr nonnull @1, i32 %16)
  br label %50

50:                                               ; preds = %._crit_edge, %7
  ret void
}